target datalayout = "e-m:e-p270:32:32-p271:32:32-p272:64:64-i64:64-i128:128-f80:128-n8:16:32:64-S128"
target triple = "x86_64-unknown-linux-gnu"

; Function Attrs: mustprogress nounwind uwtable
define noundef i32 @_ZN7rocksdb7fromHexEc(i8 noundef signext %c) #3 {
entry:
  %retval = alloca i32, align 4
  %c.addr = alloca i8, align 1
  store i8 %c, ptr %c.addr, align 1
  %0 = load i8, ptr %c.addr, align 1
  %conv = sext i8 %0 to i32
  %cmp = icmp sge i32 %conv, 97
  br i1 %cmp, label %land.lhs.true, label %if.end

land.lhs.true:                                    ; preds = %entry
  %1 = load i8, ptr %c.addr, align 1
  %conv1 = sext i8 %1 to i32
  %cmp2 = icmp sle i32 %conv1, 102
  br i1 %cmp2, label %if.then, label %if.end

if.then:                                          ; preds = %land.lhs.true
  %2 = load i8, ptr %c.addr, align 1
  %conv3 = sext i8 %2 to i32
  %sub = sub nsw i32 %conv3, 32
  %conv4 = trunc i32 %sub to i8
  store i8 %conv4, ptr %c.addr, align 1
  br label %if.end

if.end:                                           ; preds = %if.then, %land.lhs.true, %entry
  %3 = load i8, ptr %c.addr, align 1
  %conv5 = sext i8 %3 to i32
  %cmp6 = icmp slt i32 %conv5, 48
  br i1 %cmp6, label %if.then15, label %lor.lhs.false

lor.lhs.false:                                    ; preds = %if.end
  %4 = load i8, ptr %c.addr, align 1
  %conv7 = sext i8 %4 to i32
  %cmp8 = icmp sgt i32 %conv7, 57
  br i1 %cmp8, label %land.lhs.true9, label %if.end16

land.lhs.true9:                                   ; preds = %lor.lhs.false
  %5 = load i8, ptr %c.addr, align 1
  %conv10 = sext i8 %5 to i32
  %cmp11 = icmp slt i32 %conv10, 65
  br i1 %cmp11, label %if.then15, label %lor.lhs.false12

lor.lhs.false12:                                  ; preds = %land.lhs.true9
  %6 = load i8, ptr %c.addr, align 1
  %conv13 = sext i8 %6 to i32
  %cmp14 = icmp sgt i32 %conv13, 70
  br i1 %cmp14, label %if.then15, label %if.end16

if.then15:                                        ; preds = %lor.lhs.false12, %land.lhs.true9, %if.end
  store i32 -1, ptr %retval, align 4
  br label %return

if.end16:                                         ; preds = %lor.lhs.false12, %lor.lhs.false
  %7 = load i8, ptr %c.addr, align 1
  %conv17 = sext i8 %7 to i32
  %cmp18 = icmp sle i32 %conv17, 57
  br i1 %cmp18, label %if.then19, label %if.end22

if.then19:                                        ; preds = %if.end16
  %8 = load i8, ptr %c.addr, align 1
  %conv20 = sext i8 %8 to i32
  %sub21 = sub nsw i32 %conv20, 48
  store i32 %sub21, ptr %retval, align 4
  br label %return

if.end22:                                         ; preds = %if.end16
  %9 = load i8, ptr %c.addr, align 1
  %conv23 = sext i8 %9 to i32
  %sub24 = sub nsw i32 %conv23, 65
  %add = add nsw i32 %sub24, 10
  store i32 %add, ptr %retval, align 4
  br label %return

return:                                           ; preds = %if.end22, %if.then19, %if.then15
  %10 = load i32, ptr %retval, align 4
  ret i32 %10
}