; Function Attrs: mustprogress nofree norecurse nosync nounwind willreturn memory(none) uwtable
define noundef i32 @_ZN7rocksdb7fromHexEc(i8 noundef signext %c) local_unnamed_addr #6 {
entry:
  %0 = add i8 %c, -97
  %or.cond = icmp ult i8 %0, 6
  %sub = add nsw i8 %c, -32
  %spec.select = select i1 %or.cond, i8 %sub, i8 %c
  %conv5 = sext i8 %spec.select to i32
  %cmp6 = icmp slt i8 %spec.select, 48
  br i1 %cmp6, label %return, label %lor.lhs.false

lor.lhs.false:                                    ; preds = %entry
  %cmp8 = icmp ugt i8 %spec.select, 57
  %1 = add nsw i8 %spec.select, -71
  %or.cond1 = icmp ult i8 %1, -6
  %or.cond11 = select i1 %cmp8, i1 %or.cond1, i1 false
  br i1 %or.cond11, label %return, label %if.end16

if.end16:                                         ; preds = %lor.lhs.false
  %cmp18 = icmp ult i8 %spec.select, 58
  br i1 %cmp18, label %if.then19, label %if.end22

if.then19:                                        ; preds = %if.end16
  %sub21 = add nsw i32 %conv5, -48
  br label %return

if.end22:                                         ; preds = %if.end16
  %add = add nsw i32 %conv5, -55
  br label %return

return:                                           ; preds = %entry, %lor.lhs.false, %if.end22, %if.then19
  %retval.0 = phi i32 [ %sub21, %if.then19 ], [ %add, %if.end22 ], [ -1, %lor.lhs.false ], [ -1, %entry ]
  ret i32 %retval.0
}